; Function Attrs: mustprogress nounwind uwtable
define void @_ZN5osgeo4proj5datum29DynamicVerticalReferenceFrameD2Ev(ptr noundef nonnull align 8 dereferenceable(80) %0) unnamed_addr #4 align 2 personality ptr @__gxx_personality_v0 {
  %2 = getelementptr inbounds i8, ptr %0, i64 72
  %3 = load ptr, ptr %2, align 8
  %.not.i = icmp eq ptr %3, null
  br i1 %.not.i, label %_ZNSt10unique_ptrIN5osgeo4proj5datum29DynamicVerticalReferenceFrame7PrivateESt14default_deleteIS4_EED2Ev.exit, label %_ZNKSt14default_deleteIN5osgeo4proj5datum29DynamicVerticalReferenceFrame7PrivateEEclEPS4_.exit.i

_ZNKSt14default_deleteIN5osgeo4proj5datum29DynamicVerticalReferenceFrame7PrivateEEclEPS4_.exit.i: ; preds = %1
  %4 = getelementptr inbounds i8, ptr %3, i64 32
  tail call void @_ZNSt7__cxx1112basic_stringIcSt11char_traitsIcESaIcEED1Ev(ptr noundef nonnull align 8 dereferenceable(32) %4) #26
  tail call void @_ZN5osgeo4proj6common7MeasureD1Ev(ptr noundef nonnull align 8 dereferenceable(24) %3) #26
  tail call void @_ZdlPv(ptr noundef nonnull %3) #28
  br label %_ZNSt10unique_ptrIN5osgeo4proj5datum29DynamicVerticalReferenceFrame7PrivateESt14default_deleteIS4_EED2Ev.exit

_ZNSt10unique_ptrIN5osgeo4proj5datum29DynamicVerticalReferenceFrame7PrivateESt14default_deleteIS4_EED2Ev.exit: ; preds = %1, %_ZNKSt14default_deleteIN5osgeo4proj5datum29DynamicVerticalReferenceFrame7PrivateEEclEPS4_.exit.i
  store ptr null, ptr %2, align 8
  tail call void @_ZN5osgeo4proj5datum22VerticalReferenceFrameD2Ev(ptr noundef nonnull align 8 dereferenceable(72) %0) #26
  ret void
}